; Function Attrs: mustprogress uwtable
define void @_Z9printBitsRSof(ptr noundef nonnull align 8 dereferenceable(8) %0, float noundef %1) local_unnamed_addr #3 {
  %3 = alloca i8, align 1
  %4 = alloca i8, align 1
  %5 = bitcast float %1 to i32
  %invariant.gep = getelementptr i8, ptr %0, i64 16
  br label %7

6:                                                ; preds = %29
  ret void

7:                                                ; preds = %2, %29
  %.013 = phi i32 [ 31, %2 ], [ %30, %29 ]
  %8 = shl nuw i32 1, %.013
  %9 = and i32 %8, %5
  %.not = icmp eq i32 %9, 0
  %10 = select i1 %.not, i8 48, i8 49
  call void @llvm.lifetime.start.p0(i64 1, ptr nonnull %4)
  store i8 %10, ptr %4, align 1, !tbaa !8
  %11 = load ptr, ptr %0, align 8, !tbaa !14
  %12 = getelementptr i8, ptr %11, i64 -24
  %13 = load i64, ptr %12, align 8
  %gep = getelementptr i8, ptr %invariant.gep, i64 %13
  %14 = load i64, ptr %gep, align 8, !tbaa !16
  %.not.i = icmp eq i64 %14, 0
  br i1 %.not.i, label %17, label %15

15:                                               ; preds = %7
  %16 = call noundef nonnull align 8 dereferenceable(8) ptr @_ZSt16__ostream_insertIcSt11char_traitsIcEERSt13basic_ostreamIT_T0_ES6_PKS3_l(ptr noundef nonnull align 8 dereferenceable(8) %0, ptr noundef nonnull %4, i64 noundef 1)
  br label %_ZStlsISt11char_traitsIcEERSt13basic_ostreamIcT_ES5_c.exit

17:                                               ; preds = %7
  %18 = call noundef nonnull align 8 dereferenceable(8) ptr @_ZNSo3putEc(ptr noundef nonnull align 8 dereferenceable(8) %0, i8 noundef signext %10)
  br label %_ZStlsISt11char_traitsIcEERSt13basic_ostreamIcT_ES5_c.exit

_ZStlsISt11char_traitsIcEERSt13basic_ostreamIcT_ES5_c.exit: ; preds = %15, %17
  call void @llvm.lifetime.end.p0(i64 1, ptr nonnull %4)
  %19 = and i32 %.013, 2147483639
  %or.cond = icmp eq i32 %19, 23
  br i1 %or.cond, label %20, label %29

20:                                               ; preds = %_ZStlsISt11char_traitsIcEERSt13basic_ostreamIcT_ES5_c.exit
  call void @llvm.lifetime.start.p0(i64 1, ptr nonnull %3)
  store i8 32, ptr %3, align 1, !tbaa !8
  %21 = load ptr, ptr %0, align 8, !tbaa !14
  %22 = getelementptr i8, ptr %21, i64 -24
  %23 = load i64, ptr %22, align 8
  %gep12 = getelementptr i8, ptr %invariant.gep, i64 %23
  %24 = load i64, ptr %gep12, align 8, !tbaa !16
  %.not.i8 = icmp eq i64 %24, 0
  br i1 %.not.i8, label %27, label %25

25:                                               ; preds = %20
  %26 = call noundef nonnull align 8 dereferenceable(8) ptr @_ZSt16__ostream_insertIcSt11char_traitsIcEERSt13basic_ostreamIT_T0_ES6_PKS3_l(ptr noundef nonnull align 8 dereferenceable(8) %0, ptr noundef nonnull %3, i64 noundef 1)
  br label %_ZStlsISt11char_traitsIcEERSt13basic_ostreamIcT_ES5_c.exit10

27:                                               ; preds = %20
  %28 = call noundef nonnull align 8 dereferenceable(8) ptr @_ZNSo3putEc(ptr noundef nonnull align 8 dereferenceable(8) %0, i8 noundef signext 32)
  br label %_ZStlsISt11char_traitsIcEERSt13basic_ostreamIcT_ES5_c.exit10

_ZStlsISt11char_traitsIcEERSt13basic_ostreamIcT_ES5_c.exit10: ; preds = %25, %27
  call void @llvm.lifetime.end.p0(i64 1, ptr nonnull %3)
  br label %29

29:                                               ; preds = %_ZStlsISt11char_traitsIcEERSt13basic_ostreamIcT_ES5_c.exit10, %_ZStlsISt11char_traitsIcEERSt13basic_ostreamIcT_ES5_c.exit
  %30 = add nsw i32 %.013, -1
  %.not14 = icmp eq i32 %.013, 0
  br i1 %.not14, label %6, label %7, !llvm.loop !29
}